ccollections
OrderedDict
p0
((lp1
(lp2
S'0'
p3
aI5
aa(lp4
S'0k'
p5
aI1
aa(lp6
S'0th'
p7
aI1
aa(lp8
S'1'
p9
aI22
aa(lp10
S'10'
p11
aI15
aa(lp12
S'11'
p13
aI3
aa(lp14
S'12'
p15
aI1
aa(lp16
S'13'
p17
aI3
aa(lp18
S'14'
p19
aI2
aa(lp20
S'15'
p21
aI4
aa(lp22
S'16'
p23
aI6
aa(lp24
S'1697'
p25
aI1
aa(lp26
S'17'
p27
aI20
aa(lp28
S'1712'
p29
aI1
aa(lp30
S'18'
p31
aI5
aa(lp32
S'1849'
p33
aI1
aa(lp34
S'1850s'
p35
aI1
aa(lp36
S'1854'
p37
aI1
aa(lp38
S'1859'
p39
aI1
aa(lp40
S'19'
p41
aI3
aa(lp42
S'1907'
p43
aI1
aa(lp44
S'1909'
p45
aI2
aa(lp46
S'1921'
p47
aI1
aa(lp48
S'1960'
p49
aI1
aa(lp50
S'1966'
p51
aI2
aa(lp52
S'1970'
p53
aI1
aa(lp54
S'1980'
p55
aI1
aa(lp56
S'1985'
p57
aI2
aa(lp58
S'1995'
p59
aI1
aa(lp60
S'2'
p61
aI9
aa(lp62
S'2005'
p63
aI1
aa(lp64
S'2014'
p65
aI1
aa(lp66
S'20th'
p67
aI2
aa(lp68
S'21'
p69
aI1
aa(lp70
S'3'
p71
aI4
aa(lp72
S'34'
p73
aI1
aa(lp74
S'3rd'
p75
aI1
aa(lp76
S'4'
p77
aI10
aa(lp78
S'41'
p79
aI4
aa(lp80
S'43'
p81
aI3
aa(lp82
S'5'
p83
aI5
aa(lp84
S'512'
p85
aI1
aa(lp86
S'513'
p87
aI3
aa(lp88
S'514'
p89
aI1
aa(lp90
S'515'
p91
aI1
aa(lp92
S'516'
p93
aI1
aa(lp94
S'517'
p95
aI1
aa(lp96
S'518'
p97
aI1
aa(lp98
S'519'
p99
aI1
aa(lp100
S'52'
p101
aI1
aa(lp102
S'520'
p103
aI1
aa(lp104
S'521'
p105
aI1
aa(lp106
S'55'
p107
aI1
aa(lp108
S'56'
p109
aI1
aa(lp110
S'6'
p111
aI3
aa(lp112
S'7'
p113
aI6
aa(lp114
S'7th'
p115
aI1
aa(lp116
S'8'
p117
aI5
aa(lp118
S'8th'
p119
aI1
aa(lp120
S'9'
p121
aI3
aa(lp122
S'Others'
p123
aI1
aa(lp124
S'The'
p125
aI1
aa(lp126
S'a'
p127
aI178
aa(lp128
S'able'
p129
aI1
aa(lp130
S'about'
p131
aI4
aa(lp132
S'above'
p133
aI3
aa(lp134
S'absence'
p135
aI2
aa(lp136
S'absolute'
p137
aI2
aa(lp138
S'abundance'
p139
aI4
aa(lp140
S'accept'
p141
aI1
aa(lp142
S'acceptable'
p143
aI1
aa(lp144
S'accepted'
p145
aI3
aa(lp146
S'accessible'
p147
aI1
aa(lp148
S'according'
p149
aI1
aa(lp150
S'accuracy'
p151
aI1
aa(lp152
S'across'
p153
aI2
aa(lp154
S'actuality'
p155
aI1
aa(lp156
S'add'
p157
aI2
aa(lp158
S'addition'
p159
aI1
aa(lp160
S'additional'
p161
aI7
aa(lp162
S'additive'
p163
aI3
aa(lp164
S'adiabatic'
p165
aI7
aa(lp166
S'adopt'
p167
aI1
aa(lp168
S'adopted'
p169
aI4
aa(lp170
S'adoption'
p171
aI1
aa(lp172
S'advanced'
p173
aI2
aa(lp174
S'advantages'
p175
aI3
aa(lp176
S'affects'
p177
aI1
aa(lp178
S'after'
p179
aI5
aa(lp180
S'again'
p181
aI2
aa(lp182
S'agrees'
p183
aI2
aa(lp184
S'aid'
p185
aI2
aa(lp186
S'aim'
p187
aI1
aa(lp188
S'aims'
p189
aI2
aa(lp190
S'air'
p191
aI1
aa(lp192
S'al'
p193
aI22
aa(lp194
S'algebraic'
p195
aI2
aa(lp196
S'aligned'
p197
aI1
aa(lp198
S'all'
p199
aI15
aa(lp200
S'allow'
p201
aI1
aa(lp202
S'allowed'
p203
aI1
aa(lp204
S'allows'
p205
aI2
aa(lp206
S'almost'
p207
aI4
aa(lp208
S'already'
p209
aI6
aa(lp210
S'also'
p211
aI22
aa(lp212
S'alternate'
p213
aI1
aa(lp214
S'alternative'
p215
aI8
aa(lp216
S'alternatively'
p217
aI1
aa(lp218
S'although'
p219
aI3
aa(lp220
S'always'
p221
aI3
aa(lp222
S'among'
p223
aI1
aa(lp224
S'amount'
p225
aI6
aa(lp226
S'an'
p227
aI41
aa(lp228
S'analysis'
p229
aI2
aa(lp230
S'analytics'
p231
aI1
aa(lp232
S'analyze'
p233
aI1
aa(lp234
S'analyzed'
p235
aI1
aa(lp236
S'analyzing'
p237
aI1
aa(lp238
S'and'
p239
aI201
aa(lp240
S'another'
p241
aI8
aa(lp242
S'answer'
p243
aI1
aa(lp244
S'any'
p245
aI18
aa(lp246
S'appeal'
p247
aI1
aa(lp248
S'appearing'
p249
aI1
aa(lp250
S'appending'
p251
aI1
aa(lp252
S'appliances'
p253
aI2
aa(lp254
S'applications'
p255
aI1
aa(lp256
S'applied'
p257
aI2
aa(lp258
S'applies'
p259
aI4
aa(lp260
S'appreciate'
p261
aI1
aa(lp262
S'approach'
p263
aI50
aa(lp264
S'approaches'
p265
aI20
aa(lp266
S'approximated'
p267
aI1
aa(lp268
S'approximately'
p269
aI1
aa(lp270
S'approximation'
p271
aI1
aa(lp272
S'apt'
p273
aI1
aa(lp274
S'arbitrarily'
p275
aI3
aa(lp276
S'arbitrary'
p277
aI3
aa(lp278
S'arduous'
p279
aI1
aa(lp280
S'are'
p281
aI65
aa(lp282
S'area'
p283
aI1
aa(lp284
S'argued'
p285
aI2
aa(lp286
S'arises'
p287
aI1
aa(lp288
S'arithmetic'
p289
aI1
aa(lp290
S'around'
p291
aI2
aa(lp292
S'arrive'
p293
aI1
aa(lp294
S'articles'
p295
aI4
aa(lp296
S'as'
p297
aI59
aa(lp298
S'aspects'
p299
aI2
aa(lp300
S'assumed'
p301
aI5
aa(lp302
S'assuming'
p303
aI1
aa(lp304
S'astrazeneca'
p305
aI1
aa(lp306
S'at'
p307
aI22
aa(lp308
S'atmospheric'
p309
aI1
aa(lp310
S'atomic'
p311
aI1
aa(lp312
S'atp'
p313
aI1
aa(lp314
S'attempt'
p315
aI1
aa(lp316
S'attempted'
p317
aI1
aa(lp318
S'attempting'
p319
aI1
aa(lp320
S'attention'
p321
aI1
aa(lp322
S'audience'
p323
aI1
aa(lp324
S'author'
p325
aI3
aa(lp326
S'authors'
p327
aI4
aa(lp328
S'automobiles'
p329
aI1
aa(lp330
S'availability'
p331
aI2
aa(lp332
S'available'
p333
aI2
aa(lp334
S'aware'
p335
aI1
aa(lp336
S'axiom'
p337
aI11
aa(lp338
S'axiomatic'
p339
aI20
aa(lp340
S'axioms'
p341
aI41
aa(lp342
S'b'
p343
aI3
aa(lp344
S'back'
p345
aI1
aa(lp346
S'background'
p347
aI2
aa(lp348
S'base'
p349
aI1
aa(lp350
S'based'
p351
aI14
aa(lp352
S'basic'
p353
aI6
aa(lp354
S'basics'
p355
aI1
aa(lp356
S'be'
p357
aI63
aa(lp358
S'became'
p359
aI2
aa(lp360
S'because'
p361
aI3
aa(lp362
S'become'
p363
aI4
aa(lp364
S'becomes'
p365
aI5
aa(lp366
S'been'
p367
aI23
aa(lp368
S'before'
p369
aI2
aa(lp370
S'beginners'
p371
aI1
aa(lp372
S'behavior'
p373
aI1
aa(lp374
S'being'
p375
aI3
aa(lp376
S'beneficial'
p377
aI2
aa(lp378
S'benefit'
p379
aI1
aa(lp380
S'beretta'
p381
aI3
aa(lp382
S'best'
p383
aI3
aa(lp384
S'better'
p385
aI2
aa(lp386
S'between'
p387
aI15
aa(lp388
S'bias'
p389
aI1
aa(lp390
S'big'
p391
aI2
aa(lp392
S'bigdata'
p393
aI3
aa(lp394
S'blocks'
p395
aI5
aa(lp396
S'body'
p397
aI7
aa(lp398
S'boles'
p399
aI14
aa(lp400
S'borgnakke'
p401
aI1
aa(lp402
S'born'
p403
aI2
aa(lp404
S'both'
p405
aI7
aa(lp406
S'boundary'
p407
aI2
aa(lp408
S'boyling'
p409
aI1
aa(lp410
S'brakes'
p411
aI1
aa(lp412
S'branch'
p413
aI2
aa(lp414
S'branches'
p415
aI1
aa(lp416
S'broad'
p417
aI1
aa(lp418
S'brought'
p419
aI2
aa(lp420
S'buchdahl'
p421
aI1
aa(lp422
S'buildings'
p423
aI1
aa(lp424
S'built'
p425
aI3
aa(lp426
S'business'
p427
aI1
aa(lp428
S'businesses'
p429
aI1
aa(lp430
S'but'
p431
aI14
aa(lp432
S'by'
p433
aI86
aa(lp434
S'c'
p435
aI1
aa(lp436
S'calculating'
p437
aI1
aa(lp438
S'called'
p439
aI5
aa(lp440
S'callen'
p441
aI42
aa(lp442
S'callens'
p443
aI1
aa(lp444
S'came'
p445
aI1
aa(lp446
S'can'
p447
aI28
aa(lp448
S'cannot'
p449
aI4
aa(lp450
S'capacity'
p451
aI6
aa(lp452
S'car'
p453
aI1
aa(lp454
S'carathedory'
p455
aI21
aa(lp456
S'carnot'
p457
aI1
aa(lp458
S'case'
p459
aI1
aa(lp460
S'cases'
p461
aI1
aa(lp462
S'casual'
p463
aI2
aa(lp464
S'caught'
p465
aI1
aa(lp466
S'cells'
p467
aI1
aa(lp468
S'cengel'
p469
aI14
aa(lp470
S'centered'
p471
aI2
aa(lp472
S'century'
p473
aI2
aa(lp474
S'certainly'
p475
aI1
aa(lp476
S'change'
p477
aI7
aa(lp478
S'changes'
p479
aI3
aa(lp480
S'chapter'
p481
aI5
aa(lp482
S'characterized'
p483
aI1
aa(lp484
S'chemical'
p485
aI4
aa(lp486
S'choice'
p487
aI2
aa(lp488
S'chose'
p489
aI1
aa(lp490
S'chue'
p491
aI3
aa(lp492
S'citations'
p493
aI1
aa(lp494
S'cited'
p495
aI1
aa(lp496
S'claiming'
p497
aI1
aa(lp498
S'clarify'
p499
aI1
aa(lp500
S'classical'
p501
aI8
aa(lp502
S'clausius'
p503
aI15
aa(lp504
S'clearly'
p505
aI2
aa(lp506
S'clever'
p507
aI1
aa(lp508
S'cleverly'
p509
aI1
aa(lp510
S'close'
p511
aI1
aa(lp512
S'closed'
p513
aI4
aa(lp514
S'closely'
p515
aI2
aa(lp516
S'cold'
p517
aI3
aa(lp518
S'combination'
p519
aI2
aa(lp520
S'combined'
p521
aI4
aa(lp522
S'combustion'
p523
aI3
aa(lp524
S'come'
p525
aI2
aa(lp526
S'comes'
p527
aI1
aa(lp528
S'common'
p529
aI1
aa(lp530
S'community'
p531
aI3
aa(lp532
S'compare'
p533
aI6
aa(lp534
S'compared'
p535
aI1
aa(lp536
S'comparing'
p537
aI2
aa(lp538
S'comparison'
p539
aI3
aa(lp540
S'comparisons'
p541
aI1
aa(lp542
S'compelling'
p543
aI2
aa(lp544
S'complete'
p545
aI2
aa(lp546
S'completely'
p547
aI2
aa(lp548
S'completeness'
p549
aI1
aa(lp550
S'complex'
p551
aI3
aa(lp552
S'complexity'
p553
aI1
aa(lp554
S'complicating'
p555
aI1
aa(lp556
S'component'
p557
aI5
aa(lp558
S'composite'
p559
aI6
aa(lp560
S'compounds'
p561
aI1
aa(lp562
S'computers'
p563
aI1
aa(lp564
S'computing'
p565
aI1
aa(lp566
S'conceivable'
p567
aI2
aa(lp568
S'concept'
p569
aI4
aa(lp570
S'concepts'
p571
aI2
aa(lp572
S'conclude'
p573
aI1
aa(lp574
S'concluded'
p575
aI7
aa(lp576
S'conclusion'
p577
aI1
aa(lp578
S'conclusions'
p579
aI1
aa(lp580
S'condition'
p581
aI2
aa(lp582
S'conditioning'
p583
aI1
aa(lp584
S'conditions'
p585
aI1
aa(lp586
S'configuration'
p587
aI5
aa(lp588
S'conforms'
p589
aI2
aa(lp590
S'confuse'
p591
aI1
aa(lp592
S'confusing'
p593
aI1
aa(lp594
S'consequences'
p595
aI3
aa(lp596
S'conservation'
p597
aI6
aa(lp598
S'conserved'
p599
aI1
aa(lp600
S'consider'
p601
aI8
aa(lp602
S'consideration'
p603
aI5
aa(lp604
S'considerations'
p605
aI3
aa(lp606
S'considered'
p607
aI7
aa(lp608
S'considering'
p609
aI6
aa(lp610
S'consistency'
p611
aI2
aa(lp612
S'consisting'
p613
aI1
aa(lp614
S'constant'
p615
aI5
aa(lp616
S'constantin'
p617
aI1
aa(lp618
S'constantly'
p619
aI1
aa(lp620
S'constituent'
p621
aI2
aa(lp622
S'constrained'
p623
aI1
aa(lp624
S'constraint'
p625
aI1
aa(lp626
S'constraints'
p627
aI2
aa(lp628
S'consumption'
p629
aI1
aa(lp630
S'contact'
p631
aI1
aa(lp632
S'content'
p633
aI1
aa(lp634
S'continuity'
p635
aI1
aa(lp636
S'continuous'
p637
aI1
aa(lp638
S'contradict'
p639
aI1
aa(lp640
S'contrast'
p641
aI2
aa(lp642
S'contrasting'
p643
aI1
aa(lp644
S'convenient'
p645
aI1
aa(lp646
S'converge'
p647
aI1
aa(lp648
S'conversion'
p649
aI1
aa(lp650
S'conversions'
p651
aI1
aa(lp652
S'convert'
p653
aI1
aa(lp654
S'cool'
p655
aI3
aa(lp656
S'cooler'
p657
aI4
aa(lp658
S'copper'
p659
aI2
aa(lp660
S'could'
p661
aI2
aa(lp662
S'counter'
p663
aI1
aa(lp664
S'countless'
p665
aI1
aa(lp666
S'course'
p667
aI1
aa(lp668
S'create'
p669
aI1
aa(lp670
S'created'
p671
aI2
aa(lp672
S'creating'
p673
aI1
aa(lp674
S'creation'
p675
aI1
aa(lp676
S'criterion'
p677
aI1
aa(lp678
S'criticism'
p679
aI2
aa(lp680
S'criticized'
p681
aI1
aa(lp682
S'critics'
p683
aI1
aa(lp684
S'cross'
p685
aI1
aa(lp686
S'crystalline'
p687
aI1
aa(lp688
S'curiosity'
p689
aI1
aa(lp690
S'current'
p691
aI1
aa(lp692
S'curve'
p693
aI1
aa(lp694
S'cxotodayalerts'
p695
aI1
aa(lp696
S'cycle'
p697
aI7
aa(lp698
S'cycles'
p699
aI4
aa(lp700
S'cyclic'
p701
aI3
aa(lp702
S'cylinder'
p703
aI1
aa(lp704
S'data'
p705
aI3
aa(lp706
S'deals'
p707
aI1
aa(lp708
S'debated'
p709
aI2
aa(lp710
S'decade'
p711
aI1
aa(lp712
S'deduce'
p713
aI1
aa(lp714
S'define'
p715
aI4
aa(lp716
S'defined'
p717
aI13
aa(lp718
S'defines'
p719
aI2
aa(lp720
S'defining'
p721
aI2
aa(lp722
S'definite'
p723
aI1
aa(lp724
S'definition'
p725
aI9
aa(lp726
S'definitions'
p727
aI3
aa(lp728
S'degree'
p729
aI1
aa(lp730
S'deliberation'
p731
aI1
aa(lp732
S'deliver'
p733
aI1
aa(lp734
S'deltas'
p735
aI2
aa(lp736
S'deltau'
p737
aI1
aa(lp738
S'delving'
p739
aI1
aa(lp740
S'demonstrate'
p741
aI3
aa(lp742
S'demonstrated'
p743
aI1
aa(lp744
S'dense'
p745
aI1
aa(lp746
S'deny'
p747
aI2
aa(lp748
S'departing'
p749
aI1
aa(lp750
S'dependent'
p751
aI1
aa(lp752
S'depends'
p753
aI1
aa(lp754
S'deployed'
p755
aI1
aa(lp756
S'derivation'
p757
aI3
aa(lp758
S'derivations'
p759
aI2
aa(lp760
S'derivative'
p761
aI5
aa(lp762
S'derivatives'
p763
aI2
aa(lp764
S'derive'
p765
aI4
aa(lp766
S'derived'
p767
aI12
aa(lp768
S'describe'
p769
aI2
aa(lp770
S'described'
p771
aI5
aa(lp772
S'describes'
p773
aI3
aa(lp774
S'describing'
p775
aI1
aa(lp776
S'descriptive'
p777
aI1
aa(lp778
S'design'
p779
aI2
aa(lp780
S'designed'
p781
aI3
aa(lp782
S'designs'
p783
aI1
aa(lp784
S'destroyed'
p785
aI2
aa(lp786
S'detail'
p787
aI5
aa(lp788
S'details'
p789
aI1
aa(lp790
S'determination'
p791
aI2
aa(lp792
S'determine'
p793
aI2
aa(lp794
S'determined'
p795
aI2
aa(lp796
S'determines'
p797
aI1
aa(lp798
S'develop'
p799
aI4
aa(lp800
S'developed'
p801
aI13
aa(lp802
S'developing'
p803
aI1
aa(lp804
S'development'
p805
aI9
aa(lp806
S'developments'
p807
aI1
aa(lp808
S'deviations'
p809
aI1
aa(lp810
S'did'
p811
aI1
aa(lp812
S'difference'
p813
aI8
aa(lp814
S'differences'
p815
aI1
aa(lp816
S'different'
p817
aI15
aa(lp818
S'differentiability'
p819
aI1
aa(lp820
S'differentiable'
p821
aI1
aa(lp822
S'differential'
p823
aI8
aa(lp824
S'differentials'
p825
aI1
aa(lp826
S'differentiate'
p827
aI1
aa(lp828
S'differentiating'
p829
aI1
aa(lp830
S'differentiation'
p831
aI3
aa(lp832
S'differs'
p833
aI1
aa(lp834
S'difficult'
p835
aI1
aa(lp836
S'direct'
p837
aI1
aa(lp838
S'direction'
p839
aI2
aa(lp840
S'directions'
p841
aI2
aa(lp842
S'directly'
p843
aI5
aa(lp844
S'disadvantages'
p845
aI2
aa(lp846
S'disagree'
p847
aI1
aa(lp848
S'disappears'
p849
aI1
aa(lp850
S'disciplines'
p851
aI1
aa(lp852
S'discovered'
p853
aI1
aa(lp854
S'discoveries'
p855
aI1
aa(lp856
S'discussed'
p857
aI6
aa(lp858
S'discussion'
p859
aI14
aa(lp860
S'disorder'
p861
aI1
aa(lp862
S'disproved'
p863
aI1
aa(lp864
S'distracts'
p865
aI1
aa(lp866
S'district'
p867
aI1
aa(lp868
S'do'
p869
aI2
aa(lp870
S'does'
p871
aI7
aa(lp872
S'domain'
p873
aI1
aa(lp874
S'dominated'
p875
aI1
aa(lp876
S'dotted'
p877
aI1
aa(lp878
S'doubt'
p879
aI1
aa(lp880
S'drawn'
p881
aI3
aa(lp882
S'draws'
p883
aI1
aa(lp884
S'ds'
p885
aI2
aa(lp886
S'due'
p887
aI1
aa(lp888
S'duhem'
p889
aI5
aa(lp890
S'dv'
p891
aI1
aa(lp892
S'dynamis'
p893
aI1
aa(lp894
S'e'
p895
aI1
aa(lp896
S'each'
p897
aI15
aa(lp898
S'earlier'
p899
aI1
aa(lp900
S'early'
p901
aI2
aa(lp902
S'easier'
p903
aI4
aa(lp904
S'easily'
p905
aI1
aa(lp906
S'easy'
p907
aI2
aa(lp908
S'edition'
p909
aI2
aa(lp910
S'education'
p911
aI1
aa(lp912
S'effective'
p913
aI1
aa(lp914
S'effects'
p915
aI2
aa(lp916
S'efficiency'
p917
aI3
aa(lp918
S'efforts'
p919
aI1
aa(lp920
S'electrical'
p921
aI1
aa(lp922
S'electronics'
p923
aI2
aa(lp924
S'elegance'
p925
aI1
aa(lp926
S'elegant'
p927
aI4
aa(lp928
S'elementary'
p929
aI1
aa(lp930
S'elements'
p931
aI3
aa(lp932
S'embodied'
p933
aI1
aa(lp934
S'emerged'
p935
aI1
aa(lp936
S'emissions'
p937
aI1
aa(lp938
S'emits'
p939
aI1
aa(lp940
S'empirical'
p941
aI1
aa(lp942
S'encompassing'
p943
aI2
aa(lp944
S'encountered'
p945
aI1
aa(lp946
S'end'
p947
aI2
aa(lp948
S'ends'
p949
aI1
aa(lp950
S'energies'
p951
aI1
aa(lp952
S'energy'
p953
aI43
aa(lp954
S'enforced'
p955
aI1
aa(lp956
S'engine'
p957
aI2
aa(lp958
S'engineering'
p959
aI27
aa(lp960
S'engines'
p961
aI9
aa(lp962
S'enhance'
p963
aI1
aa(lp964
S'entire'
p965
aI1
aa(lp966
S'entirety'
p967
aI1
aa(lp968
S'entropies'
p969
aI1
aa(lp970
S'entropy'
p971
aI70
aa(lp972
S'equal'
p973
aI2
aa(lp974
S'equation'
p975
aI31
aa(lp976
S'equations'
p977
aI16
aa(lp978
S'equilibrium'
p979
aI40
aa(lp980
S'equivalence'
p981
aI8
aa(lp982
S'equivalent'
p983
aI2
aa(lp984
S'error'
p985
aI2
aa(lp986
S'especially'
p987
aI1
aa(lp988
S'essay'
p989
aI1
aa(lp990
S'essential'
p991
aI3
aa(lp992
S'essentially'
p993
aI2
aa(lp994
S'established'
p995
aI1
aa(lp996
S'et'
p997
aI22
aa(lp998
S'euler'
p999
aI1
aa(lp1000
S'even'
p1001
aI8
aa(lp1002
S'eventually'
p1003
aI1
aa(lp1004
S'ever'
p1005
aI1
aa(lp1006
S'every'
p1007
aI6
aa(lp1008
S'evidence'
p1009
aI1
aa(lp1010
S'evident'
p1011
aI1
aa(lp1012
S'evidently'
p1013
aI1
aa(lp1014
S'exact'
p1015
aI1
aa(lp1016
S'exactly'
p1017
aI1
aa(lp1018
S'example'
p1019
aI7
aa(lp1020
S'examples'
p1021
aI7
aa(lp1022
S'exception'
p1023
aI1
aa(lp1024
S'excessive'
p1025
aI2
aa(lp1026
S'exchange'
p1027
aI1
aa(lp1028
S'executes'
p1029
aI1
aa(lp1030
S'exergy'
p1031
aI5
aa(lp1032
S'exist'
p1033
aI2
aa(lp1034
S'exists'
p1035
aI1
aa(lp1036
S'expanded'
p1037
aI1
aa(lp1038
S'expansion'
p1039
aI1
aa(lp1040
S'expectations'
p1041
aI2
aa(lp1042
S'expected'
p1043
aI1
aa(lp1044
S'experience'
p1045
aI1
aa(lp1046
S'experiences'
p1047
aI1
aa(lp1048
S'experiment'
p1049
aI1
aa(lp1050
S'experiments'
p1051
aI1
aa(lp1052
S'explain'
p1053
aI2
aa(lp1054
S'explained'
p1055
aI1
aa(lp1056
S'explaining'
p1057
aI1
aa(lp1058
S'explanation'
p1059
aI1
aa(lp1060
S'explore'
p1061
aI2
aa(lp1062
S'exposes'
p1063
aI1
aa(lp1064
S'extend'
p1065
aI1
aa(lp1066
S'extensive'
p1067
aI11
aa(lp1068
S'external'
p1069
aI2
aa(lp1070
S'extremely'
p1071
aI1
aa(lp1072
S'extremum'
p1073
aI1
aa(lp1074
S'fact'
p1075
aI3
aa(lp1076
S'factors'
p1077
aI1
aa(lp1078
S'failing'
p1079
aI1
aa(lp1080
S'fails'
p1081
aI1
aa(lp1082
S'familiar'
p1083
aI3
aa(lp1084
S'familiarity'
p1085
aI1
aa(lp1086
S'far'
p1087
aI1
aa(lp1088
S'favor'
p1089
aI2
aa(lp1090
S'feats'
p1091
aI1
aa(lp1092
S'feelings'
p1093
aI1
aa(lp1094
S'felt'
p1095
aI2
aa(lp1096
S'few'
p1097
aI2
aa(lp1098
S'fierce'
p1099
aI1
aa(lp1100
S'figure'
p1101
aI10
aa(lp1102
S'fills'
p1103
aI1
aa(lp1104
S'finally'
p1105
aI1
aa(lp1106
S'find'
p1107
aI1
aa(lp1108
S'finite'
p1109
aI2
aa(lp1110
S'first'
p1111
aI28
aa(lp1112
S'fixed'
p1113
aI2
aa(lp1114
S'flow'
p1115
aI5
aa(lp1116
S'focus'
p1117
aI2
aa(lp1118
S'focused'
p1119
aI1
aa(lp1120
S'follow'
p1121
aI2
aa(lp1122
S'followed'
p1123
aI2
aa(lp1124
S'following'
p1125
aI4
aa(lp1126
S'follows'
p1127
aI2
aa(lp1128
S'food'
p1129
aI1
aa(lp1130
S'for'
p1131
aI63
aa(lp1132
S'form'
p1133
aI8
aa(lp1134
S'formal'
p1135
aI2
aa(lp1136
S'formed'
p1137
aI2
aa(lp1138
S'forms'
p1139
aI1
aa(lp1140
S'formulate'
p1141
aI1
aa(lp1142
S'formulated'
p1143
aI3
aa(lp1144
S'formulation'
p1145
aI8
aa(lp1146
S'formulations'
p1147
aI1
aa(lp1148
S'found'
p1149
aI5
aa(lp1150
S'foundations'
p1151
aI2
aa(lp1152
S'four'
p1153
aI5
aa(lp1154
S'fourth'
p1155
aI4
aa(lp1156
S'free'
p1157
aI4
aa(lp1158
S'frequently'
p1159
aI2
aa(lp1160
S'from'
p1161
aI55
aa(lp1162
S'fuel'
p1163
aI2
aa(lp1164
S'fully'
p1165
aI1
aa(lp1166
S'function'
p1167
aI12
aa(lp1168
S'functions'
p1169
aI1
aa(lp1170
S'fundamental'
p1171
aI16
aa(lp1172
S'fundamentals'
p1173
aI1
aa(lp1174
S'further'
p1175
aI1
aa(lp1176
S'furthermore'
p1177
aI4
aa(lp1178
S'future'
p1179
aI1
aa(lp1180
S'gain'
p1181
aI1
aa(lp1182
S'gases'
p1183
aI2
aa(lp1184
S'general'
p1185
aI2
aa(lp1186
S'generalize'
p1187
aI1
aa(lp1188
S'generalized'
p1189
aI2
aa(lp1190
S'generated'
p1191
aI1
aa(lp1192
S'generates'
p1193
aI1
aa(lp1194
S'generating'
p1195
aI1
aa(lp1196
S'generation'
p1197
aI1
aa(lp1198
S'geometric'
p1199
aI2
aa(lp1200
S'gibbs'
p1201
aI10
aa(lp1202
S'gibbsian'
p1203
aI5
aa(lp1204
S'give'
p1205
aI2
aa(lp1206
S'given'
p1207
aI7
aa(lp1208
S'gives'
p1209
aI3
aa(lp1210
S'glasgow'
p1211
aI1
aa(lp1212
S'goal'
p1213
aI1
aa(lp1214
S'goes'
p1215
aI1
aa(lp1216
S'govern'
p1217
aI1
aa(lp1218
S'governed'
p1219
aI1
aa(lp1220
S'greatly'
p1221
aI1
aa(lp1222
S'greek'
p1223
aI1
aa(lp1224
S'group'
p1225
aI1
aa(lp1226
S'gyftopoulos'
p1227
aI3
aa(lp1228
S'h'
p1229
aI3
aa(lp1230
S'had'
p1231
aI2
aa(lp1232
S'half'
p1233
aI1
aa(lp1234
S'hall'
p1235
aI1
aa(lp1236
S'hard'
p1237
aI1
aa(lp1238
S'has'
p1239
aI27
aa(lp1240
S'hatsopoulos'
p1241
aI2
aa(lp1242
S'have'
p1243
aI18
aa(lp1244
S'having'
p1245
aI1
aa(lp1246
S'he'
p1247
aI5
aa(lp1248
S'healthcare'
p1249
aI1
aa(lp1250
S'heard'
p1251
aI1
aa(lp1252
S'heat'
p1253
aI46
aa(lp1254
S'heating'
p1255
aI1
aa(lp1256
S'heavily'
p1257
aI1
aa(lp1258
S'hence'
p1259
aI2
aa(lp1260
S'heuristic'
p1261
aI1
aa(lp1262
S'highlighted'
p1263
aI2
aa(lp1264
S'highlights'
p1265
aI1
aa(lp1266
S'highly'
p1267
aI1
aa(lp1268
S'hinder'
p1269
aI1
aa(lp1270
S'hint'
p1271
aI1
aa(lp1272
S'his'
p1273
aI17
aa(lp1274
S'homogenous'
p1275
aI1
aa(lp1276
S'hot'
p1277
aI4
aa(lp1278
S'hotter'
p1279
aI2
aa(lp1280
S'household'
p1281
aI1
aa(lp1282
S'how'
p1283
aI2
aa(lp1284
S'however'
p1285
aI5
aa(lp1286
S'human'
p1287
aI1
aa(lp1288
S'humans'
p1289
aI1
aa(lp1290
S'hyper'
p1291
aI1
aa(lp1292
S'hypothetical'
p1293
aI4
aa(lp1294
S'i'
p1295
aI6
aa(lp1296
S'ideal'
p1297
aI2
aa(lp1298
S'identification'
p1299
aI1
aa(lp1300
S'identify'
p1301
aI1
aa(lp1302
S'if'
p1303
aI7
aa(lp1304
S'ii'
p1305
aI15
aa(lp1306
S'iii'
p1307
aI7
aa(lp1308
S'illustrated'
p1309
aI2
aa(lp1310
S'imaginary'
p1311
aI1
aa(lp1312
S'imagine'
p1313
aI1
aa(lp1314
S'impermeable'
p1315
aI1
aa(lp1316
S'implications'
p1317
aI1
aa(lp1318
S'implicit'
p1319
aI1
aa(lp1320
S'implies'
p1321
aI3
aa(lp1322
S'imply'
p1323
aI1
aa(lp1324
S'importance'
p1325
aI3
aa(lp1326
S'important'
p1327
aI8
aa(lp1328
S'impossible'
p1329
aI12
aa(lp1330
S'in'
p1331
aI126
aa(lp1332
S'inaccessible'
p1333
aI1
aa(lp1334
S'include'
p1335
aI6
aa(lp1336
S'included'
p1337
aI2
aa(lp1338
S'includes'
p1339
aI1
aa(lp1340
S'including'
p1341
aI1
aa(lp1342
S'increase'
p1343
aI3
aa(lp1344
S'increasing'
p1345
aI4
aa(lp1346
S'independent'
p1347
aI2
aa(lp1348
S'indicate'
p1349
aI2
aa(lp1350
S'indistinguishable'
p1351
aI1
aa(lp1352
S'industrial'
p1353
aI2
aa(lp1354
S'inefficient'
p1355
aI1
aa(lp1356
S'inference'
p1357
aI1
aa(lp1358
S'infers'
p1359
aI1
aa(lp1360
S'infinitesimal'
p1361
aI1
aa(lp1362
S'infinitesimally'
p1363
aI1
aa(lp1364
S'influence'
p1365
aI1
aa(lp1366
S'information'
p1367
aI3
aa(lp1368
S'inherently'
p1369
aI1
aa(lp1370
S'initial'
p1371
aI2
aa(lp1372
S'input'
p1373
aI1
aa(lp1374
S'inspiration'
p1375
aI1
aa(lp1376
S'instead'
p1377
aI3
aa(lp1378
S'insulation'
p1379
aI1
aa(lp1380
S'integral'
p1381
aI6
aa(lp1382
S'integrals'
p1383
aI1
aa(lp1384
S'integrating'
p1385
aI1
aa(lp1386
S'integration'
p1387
aI1
aa(lp1388
S'intensive'
p1389
aI3
aa(lp1390
S'interaction'
p1391
aI2
aa(lp1392
S'interactions'
p1393
aI1
aa(lp1394
S'interest'
p1395
aI1
aa(lp1396
S'interesting'
p1397
aI4
aa(lp1398
S'intermediate'
p1399
aI2
aa(lp1400
S'internal'
p1401
aI9
aa(lp1402
S'interpretation'
p1403
aI1
aa(lp1404
S'interpretations'
p1405
aI1
aa(lp1406
S'interview'
p1407
aI1
aa(lp1408
S'into'
p1409
aI11
aa(lp1410
S'intrinsic'
p1411
aI1
aa(lp1412
S'introduce'
p1413
aI2
aa(lp1414
S'introduced'
p1415
aI4
aa(lp1416
S'introduces'
p1417
aI2
aa(lp1418
S'introducing'
p1419
aI1
aa(lp1420
S'introduction'
p1421
aI5
aa(lp1422
S'intuitive'
p1423
aI3
aa(lp1424
S'invented'
p1425
aI1
aa(lp1426
S'inverted'
p1427
aI1
aa(lp1428
S'involve'
p1429
aI3
aa(lp1430
S'involved'
p1431
aI2
aa(lp1432
S'involves'
p1433
aI1
aa(lp1434
S'involving'
p1435
aI1
aa(lp1436
S'irreversibility'
p1437
aI2
aa(lp1438
S'irreversible'
p1439
aI5
aa(lp1440
S'is'
p1441
aI220
aa(lp1442
S'isolated'
p1443
aI3
aa(lp1444
S'isothermal'
p1445
aI1
aa(lp1446
S'issue'
p1447
aI2
aa(lp1448
S'it'
p1449
aI68
aa(lp1450
S'ith'
p1451
aI1
aa(lp1452
S'its'
p1453
aI4
aa(lp1454
S'iv'
p1455
aI2
aa(lp1456
S'j'
p1457
aI1
aa(lp1458
S'jet'
p1459
aI1
aa(lp1460
S'jiggling'
p1461
aI1
aa(lp1462
S'journals'
p1463
aI1
aa(lp1464
S'just'
p1465
aI3
aa(lp1466
S'k'
p1467
aI1
aa(lp1468
S'kdn'
p1469
aI1
aa(lp1470
S'keenan'
p1471
aI2
aa(lp1472
S'kelvin'
p1473
aI16
aa(lp1474
S'key'
p1475
aI4
aa(lp1476
S'kinetic'
p1477
aI1
aa(lp1478
S'know'
p1479
aI4
aa(lp1480
S'knowledge'
p1481
aI1
aa(lp1482
S'known'
p1483
aI8
aa(lp1484
S'lack'
p1485
aI1
aa(lp1486
S'lambda'
p1487
aI5
aa(lp1488
S'landsberg'
p1489
aI1
aa(lp1490
S'large'
p1491
aI1
aa(lp1492
S'larger'
p1493
aI1
aa(lp1494
S'laszlo'
p1495
aI2
aa(lp1496
S'late'
p1497
aI1
aa(lp1498
S'later'
p1499
aI2
aa(lp1500
S'lausius'
p1501
aI1
aa(lp1502
S'lavanyarathnam'
p1503
aI1
aa(lp1504
S'law'
p1505
aI48
aa(lp1506
S'laws'
p1507
aI15
aa(lp1508
S'laying'
p1509
aI1
aa(lp1510
S'lead'
p1511
aI9
aa(lp1512
S'leading'
p1513
aI2
aa(lp1514
S'leads'
p1515
aI7
aa(lp1516
S'learn'
p1517
aI2
aa(lp1518
S'learned'
p1519
aI1
aa(lp1520
S'learning'
p1521
aI2
aa(lp1522
S'leave'
p1523
aI1
aa(lp1524
S'left'
p1525
aI4
aa(lp1526
S'length'
p1527
aI2
aa(lp1528
S'less'
p1529
aI1
aa(lp1530
S'lieb'
p1531
aI1
aa(lp1532
S'lies'
p1533
aI1
aa(lp1534
S'life'
p1535
aI1
aa(lp1536
S'like'
p1537
aI1
aa(lp1538
S'likely'
p1539
aI1
aa(lp1540
S'line'
p1541
aI1
aa(lp1542
S'linked'
p1543
aI3
aa(lp1544
S'linking'
p1545
aI1
aa(lp1546
S'links'
p1547
aI1
aa(lp1548
S'list'
p1549
aI1
aa(lp1550
S'literature'
p1551
aI1
aa(lp1552
S'little'
p1553
aI2
aa(lp1554
S'logical'
p1555
aI2
aa(lp1556
S'logically'
p1557
aI2
aa(lp1558
S'loophole'
p1559
aI2
aa(lp1560
S'loopholes'
p1561
aI1
aa(lp1562
S'lord'
p1563
aI2
aa(lp1564
S'lowest'
p1565
aI1
aa(lp1566
S'lucid'
p1567
aI1
aa(lp1568
S'm'
p1569
aI2
aa(lp1570
S'macdonald'
p1571
aI2
aa(lp1572
S'macroscopically'
p1573
aI1
aa(lp1574
S'made'
p1575
aI3
aa(lp1576
S'main'
p1577
aI1
aa(lp1578
S'maintained'
p1579
aI1
aa(lp1580
S'major'
p1581
aI1
aa(lp1582
S'majority'
p1583
aI1
aa(lp1584
S'make'
p1585
aI10
aa(lp1586
S'makes'
p1587
aI3
aa(lp1588
S'making'
p1589
aI1
aa(lp1590
S'manifold'
p1591
aI1
aa(lp1592
S'many'
p1593
aI16
aa(lp1594
S'material'
p1595
aI1
aa(lp1596
S'materials'
p1597
aI1
aa(lp1598
S'mathematical'
p1599
aI15
aa(lp1600
S'mathematically'
p1601
aI4
aa(lp1602
S'mathematics'
p1603
aI4
aa(lp1604
S'matter'
p1605
aI3
aa(lp1606
S'maximize'
p1607
aI3
aa(lp1608
S'maximizes'
p1609
aI2
aa(lp1610
S'maximum'
p1611
aI6
aa(lp1612
S'may'
p1613
aI5
aa(lp1614
S'means'
p1615
aI1
aa(lp1616
S'measurable'
p1617
aI1
aa(lp1618
S'measurement'
p1619
aI1
aa(lp1620
S'measurements'
p1621
aI1
aa(lp1622
S'mechanical'
p1623
aI1
aa(lp1624
S'mechanics'
p1625
aI5
aa(lp1626
S'mention'
p1627
aI1
aa(lp1628
S'mentions'
p1629
aI1
aa(lp1630
S'met'
p1631
aI1
aa(lp1632
S'method'
p1633
aI7
aa(lp1634
S'methodology'
p1635
aI1
aa(lp1636
S'methods'
p1637
aI3
aa(lp1638
S'mid'
p1639
aI1
aa(lp1640
S'might'
p1641
aI1
aa(lp1642
S'minimal'
p1643
aI1
aa(lp1644
S'minus'
p1645
aI1
aa(lp1646
S'missing'
p1647
aI1
aa(lp1648
S'mode'
p1649
aI2
aa(lp1650
S'modern'
p1651
aI12
aa(lp1652
S'modes'
p1653
aI1
aa(lp1654
S'molal'
p1655
aI1
aa(lp1656
S'mole'
p1657
aI3
aa(lp1658
S'molecular'
p1659
aI1
aa(lp1660
S'moles'
p1661
aI1
aa(lp1662
S'monotonically'
p1663
aI2
aa(lp1664
S'moran'
p1665
aI22
aa(lp1666
S'more'
p1667
aI10
aa(lp1668
S'most'
p1669
aI16
aa(lp1670
S'mostly'
p1671
aI1
aa(lp1672
S'motion'
p1673
aI2
aa(lp1674
S'mouliness'
p1675
aI1
aa(lp1676
S'much'
p1677
aI4
aa(lp1678
S'multiphase'
p1679
aI1
aa(lp1680
S'multiplied'
p1681
aI2
aa(lp1682
S'multitude'
p1683
aI1
aa(lp1684
S'must'
p1685
aI13
aa(lp1686
S'n'
p1687
aI1
aa(lp1688
S'nature'
p1689
aI2
aa(lp1690
S'necessity'
p1691
aI1
aa(lp1692
S'neighborhood'
p1693
aI2
aa(lp1694
S'neo'
p1695
aI1
aa(lp1696
S'nernst'
p1697
aI2
aa(lp1698
S'net'
p1699
aI6
aa(lp1700
S'never'
p1701
aI1
aa(lp1702
S'new'
p1703
aI7
aa(lp1704
S'newcomen'
p1705
aI1
aa(lp1706
S'next'
p1707
aI1
aa(lp1708
S'no'
p1709
aI13
aa(lp1710
S'nobody'
p1711
aI1
aa(lp1712
S'non'
p1713
aI3
aa(lp1714
S'not'
p1715
aI25
aa(lp1716
S'notable'
p1717
aI1
aa(lp1718
S'notably'
p1719
aI1
aa(lp1720
S'notation'
p1721
aI1
aa(lp1722
S'note'
p1723
aI3
aa(lp1724
S'noted'
p1725
aI3
aa(lp1726
S'notion'
p1727
aI4
aa(lp1728
S'novel'
p1729
aI2
aa(lp1730
S'now'
p1731
aI7
aa(lp1732
S'number'
p1733
aI5
aa(lp1734
S'numbers'
p1735
aI3
aa(lp1736
S'object'
p1737
aI1
aa(lp1738
S'objective'
p1739
aI1
aa(lp1740
S'objects'
p1741
aI4
aa(lp1742
S'observable'
p1743
aI1
aa(lp1744
S'observation'
p1745
aI2
aa(lp1746
S'observed'
p1747
aI4
aa(lp1748
S'obtained'
p1749
aI1
aa(lp1750
S'obvious'
p1751
aI3
aa(lp1752
S'occur'
p1753
aI2
aa(lp1754
S'of'
p1755
aI367
aa(lp1756
S'often'
p1757
aI2
aa(lp1758
S'old'
p1759
aI1
aa(lp1760
S'older'
p1761
aI3
aa(lp1762
S'omission'
p1763
aI2
aa(lp1764
S'on'
p1765
aI30
aa(lp1766
S'once'
p1767
aI1
aa(lp1768
S'one'
p1769
aI21
aa(lp1770
S'only'
p1771
aI9
aa(lp1772
S'opaque'
p1773
aI1
aa(lp1774
S'opening'
p1775
aI1
aa(lp1776
S'operate'
p1777
aI4
aa(lp1778
S'operations'
p1779
aI1
aa(lp1780
S'optimize'
p1781
aI1
aa(lp1782
S'or'
p1783
aI15
aa(lp1784
S'order'
p1785
aI2
aa(lp1786
S'original'
p1787
aI3
aa(lp1788
S'originally'
p1789
aI1
aa(lp1790
S'origins'
p1791
aI2
aa(lp1792
S'other'
p1793
aI17
aa(lp1794
S'others'
p1795
aI1
aa(lp1796
S'otherwise'
p1797
aI1
aa(lp1798
S'our'
p1799
aI4
aa(lp1800
S'out'
p1801
aI8
aa(lp1802
S'output'
p1803
aI1
aa(lp1804
S'outputs'
p1805
aI1
aa(lp1806
S'oven'
p1807
aI1
aa(lp1808
S'over'
p1809
aI5
aa(lp1810
S'overall'
p1811
aI1
aa(lp1812
S'overreaching'
p1813
aI1
aa(lp1814
S'overwhelming'
p1815
aI1
aa(lp1816
S'own'
p1817
aI1
aa(lp1818
S'oxygen'
p1819
aI1
aa(lp1820
S'p'
p1821
aI1
aa(lp1822
S'paper'
p1823
aI9
aa(lp1824
S'papers'
p1825
aI3
aa(lp1826
S'parameters'
p1827
aI15
aa(lp1828
S'part'
p1829
aI2
aa(lp1830
S'partial'
p1831
aI4
aa(lp1832
S'partially'
p1833
aI1
aa(lp1834
S'particles'
p1835
aI1
aa(lp1836
S'particular'
p1837
aI2
aa(lp1838
S'particularly'
p1839
aI1
aa(lp1840
S'parts'
p1841
aI1
aa(lp1842
S'path'
p1843
aI1
aa(lp1844
S'pedagogical'
p1845
aI1
aa(lp1846
S'peer'
p1847
aI2
aa(lp1848
S'performed'
p1849
aI1
aa(lp1850
S'performing'
p1851
aI1
aa(lp1852
S'period'
p1853
aI1
aa(lp1854
S'permit'
p1855
aI1
aa(lp1856
S'permits'
p1857
aI1
aa(lp1858
S'personal'
p1859
aI1
aa(lp1860
S'pfaffian'
p1861
aI3
aa(lp1862
S'physical'
p1863
aI7
aa(lp1864
S'physicist'
p1865
aI3
aa(lp1866
S'physicists'
p1867
aI2
aa(lp1868
S'physics'
p1869
aI3
aa(lp1870
S'picture'
p1871
aI2
aa(lp1872
S'pippard'
p1873
aI1
aa(lp1874
S'piston'
p1875
aI1
aa(lp1876
S'pj'
p1877
aI1
aa(lp1878
S'planck'
p1879
aI7
aa(lp1880
S'plank'
p1881
aI7
aa(lp1882
S'plants'
p1883
aI2
aa(lp1884
S'play'
p1885
aI1
aa(lp1886
S'plays'
p1887
aI1
aa(lp1888
S'plotted'
p1889
aI1
aa(lp1890
S'point'
p1891
aI7
aa(lp1892
S'pointed'
p1893
aI2
aa(lp1894
S'popular'
p1895
aI1
aa(lp1896
S'popularized'
p1897
aI1
aa(lp1898
S'positioning'
p1899
aI1
aa(lp1900
S'positions'
p1901
aI2
aa(lp1902
S'positive'
p1903
aI4
aa(lp1904
S'possibility'
p1905
aI2
aa(lp1906
S'possible'
p1907
aI3
aa(lp1908
S'postulate'
p1909
aI35
aa(lp1910
S'postulated'
p1911
aI1
aa(lp1912
S'postulates'
p1913
aI16
aa(lp1914
S'potential'
p1915
aI6
aa(lp1916
S'poverty'
p1917
aI1
aa(lp1918
S'power'
p1919
aI4
aa(lp1920
S'precise'
p1921
aI1
aa(lp1922
S'preferences'
p1923
aI1
aa(lp1924
S'presence'
p1925
aI1
aa(lp1926
S'present'
p1927
aI2
aa(lp1928
S'presents'
p1929
aI3
aa(lp1930
S'pressure'
p1931
aI2
aa(lp1932
S'previous'
p1933
aI1
aa(lp1934
S'previously'
p1935
aI1
aa(lp1936
S'primarily'
p1937
aI1
aa(lp1938
S'principle'
p1939
aI2
aa(lp1940
S'principles'
p1941
aI2
aa(lp1942
S'problem'
p1943
aI6
aa(lp1944
S'problematic'
p1945
aI1
aa(lp1946
S'problems'
p1947
aI4
aa(lp1948
S'proceed'
p1949
aI1
aa(lp1950
S'process'
p1951
aI28
aa(lp1952
S'processes'
p1953
aI9
aa(lp1954
S'produces'
p1955
aI1
aa(lp1956
S'professor'
p1957
aI1
aa(lp1958
S'professors'
p1959
aI1
aa(lp1960
S'profound'
p1961
aI1
aa(lp1962
S'progress'
p1963
aI1
aa(lp1964
S'prohibited'
p1965
aI1
aa(lp1966
S'project'
p1967
aI2
aa(lp1968
S'prominent'
p1969
aI2
aa(lp1970
S'promise'
p1971
aI1
aa(lp1972
S'proof'
p1973
aI1
aa(lp1974
S'proofs'
p1975
aI1
aa(lp1976
S'properties'
p1977
aI6
aa(lp1978
S'property'
p1979
aI13
aa(lp1980
S'proportional'
p1981
aI1
aa(lp1982
S'proposed'
p1983
aI4
aa(lp1984
S'proposition'
p1985
aI1
aa(lp1986
S'propositions'
p1987
aI1
aa(lp1988
S'prove'
p1989
aI1
aa(lp1990
S'proven'
p1991
aI3
aa(lp1992
S'provide'
p1993
aI3
aa(lp1994
S'publication'
p1995
aI1
aa(lp1996
S'publications'
p1997
aI1
aa(lp1998
S'published'
p1999
aI5
aa(lp2000
S'pumps'
p2001
aI1
aa(lp2002
S'pure'
p2003
aI1
aa(lp2004
S'purely'
p2005
aI3
aa(lp2006
S'purpose'
p2007
aI1
aa(lp2008
S'purposes'
p2009
aI1
aa(lp2010
S'quality'
p2011
aI1
aa(lp2012
S'quantities'
p2013
aI1
aa(lp2014
S'quantity'
p2015
aI3
aa(lp2016
S'quasi'
p2017
aI8
aa(lp2018
S'randomness'
p2019
aI1
aa(lp2020
S'range'
p2021
aI1
aa(lp2022
S'rankine'
p2023
aI3
aa(lp2024
S'rapidly'
p2025
aI1
aa(lp2026
S'ratio'
p2027
aI1
aa(lp2028
S're'
p2029
aI1
aa(lp2030
S'reach'
p2031
aI6
aa(lp2032
S'reached'
p2033
aI2
aa(lp2034
S'reactions'
p2035
aI1
aa(lp2036
S'reader'
p2037
aI9
aa(lp2038
S'readers'
p2039
aI1
aa(lp2040
S'reading'
p2041
aI2
aa(lp2042
S'real'
p2043
aI2
aa(lp2044
S'reappearing'
p2045
aI1
aa(lp2046
S'reason'
p2047
aI3
aa(lp2048
S'reasoned'
p2049
aI1
aa(lp2050
S'reasoning'
p2051
aI7
aa(lp2052
S'reasons'
p2053
aI1
aa(lp2054
S'recall'
p2055
aI1
aa(lp2056
S'receives'
p2057
aI2
aa(lp2058
S'receiving'
p2059
aI1
aa(lp2060
S'recognizes'
p2061
aI1
aa(lp2062
S'recommendation'
p2063
aI1
aa(lp2064
S'recovered'
p2065
aI1
aa(lp2066
S'reducing'
p2067
aI1
aa(lp2068
S'reduction'
p2069
aI2
aa(lp2070
S'reference'
p2071
aI8
aa(lp2072
S'referencing'
p2073
aI1
aa(lp2074
S'referred'
p2075
aI2
aa(lp2076
S'refined'
p2077
aI1
aa(lp2078
S'reflected'
p2079
aI1
aa(lp2080
S'reformulation'
p2081
aI1
aa(lp2082
S'refrigeration'
p2083
aI1
aa(lp2084
S'refrigerator'
p2085
aI1
aa(lp2086
S'refrigerators'
p2087
aI1
aa(lp2088
S'regarded'
p2089
aI1
aa(lp2090
S'regarding'
p2091
aI1
aa(lp2092
S'relate'
p2093
aI1
aa(lp2094
S'related'
p2095
aI5
aa(lp2096
S'relation'
p2097
aI10
aa(lp2098
S'relationship'
p2099
aI1
aa(lp2100
S'relatively'
p2101
aI1
aa(lp2102
S'reluctant'
p2103
aI1
aa(lp2104
S'removal'
p2105
aI1
aa(lp2106
S'removed'
p2107
aI1
aa(lp2108
S'report'
p2109
aI2
aa(lp2110
S'represented'
p2111
aI1
aa(lp2112
S'represents'
p2113
aI5
aa(lp2114
S'require'
p2115
aI3
aa(lp2116
S'required'
p2117
aI1
aa(lp2118
S'requirement'
p2119
aI2
aa(lp2120
S'requires'
p2121
aI5
aa(lp2122
S'research'
p2123
aI1
aa(lp2124
S'reservoir'
p2125
aI10
aa(lp2126
S'resistance'
p2127
aI1
aa(lp2128
S'respect'
p2129
aI5
aa(lp2130
S'respective'
p2131
aI1
aa(lp2132
S'restored'
p2133
aI1
aa(lp2134
S'restraint'
p2135
aI1
aa(lp2136
S'restraints'
p2137
aI1
aa(lp2138
S'restriction'
p2139
aI1
aa(lp2140
S'restrictive'
p2141
aI1
aa(lp2142
S'restricts'
p2143
aI1
aa(lp2144
S'result'
p2145
aI4
aa(lp2146
S'resulting'
p2147
aI2
aa(lp2148
S'results'
p2149
aI3
aa(lp2150
S'returns'
p2151
aI1
aa(lp2152
S'reversal'
p2153
aI2
aa(lp2154
S'reverse'
p2155
aI3
aa(lp2156
S'reversibility'
p2157
aI5
aa(lp2158
S'reversible'
p2159
aI5
aa(lp2160
S'review'
p2161
aI2
aa(lp2162
S'reviewed'
p2163
aI2
aa(lp2164
S'revolution'
p2165
aI2
aa(lp2166
S'revolutionary'
p2167
aI2
aa(lp2168
S'right'
p2169
aI1
aa(lp2170
S'rigid'
p2171
aI1
aa(lp2172
S'rigor'
p2173
aI4
aa(lp2174
S'rigorous'
p2175
aI3
aa(lp2176
S'role'
p2177
aI3
aa(lp2178
S'rudolph'
p2179
aI2
aa(lp2180
S'rule'
p2181
aI1
aa(lp2182
S's'
p2183
aI53
aa(lp2184
S'said'
p2185
aI2
aa(lp2186
S'sales'
p2187
aI1
aa(lp2188
S'same'
p2189
aI4
aa(lp2190
S'satisfied'
p2191
aI1
aa(lp2192
S'savery'
p2193
aI1
aa(lp2194
S'scale'
p2195
aI6
aa(lp2196
S'science'
p2197
aI5
aa(lp2198
S'scientific'
p2199
aI9
aa(lp2200
S'scope'
p2201
aI1
aa(lp2202
S'scotland'
p2203
aI1
aa(lp2204
S'sears'
p2205
aI1
aa(lp2206
S'second'
p2207
aI35
aa(lp2208
S'section'
p2209
aI3
aa(lp2210
S'seem'
p2211
aI1
aa(lp2212
S'select'
p2213
aI1
aa(lp2214
S'selected'
p2215
aI3
aa(lp2216
S'self'
p2217
aI1
aa(lp2218
S'selling'
p2219
aI1
aa(lp2220
S'senses'
p2221
aI1
aa(lp2222
S'separate'
p2223
aI1
aa(lp2224
S'separated'
p2225
aI1
aa(lp2226
S'set'
p2227
aI2
aa(lp2228
S'sets'
p2229
aI2
aa(lp2230
S'settle'
p2231
aI1
aa(lp2232
S'several'
p2233
aI6
aa(lp2234
S'should'
p2235
aI6
aa(lp2236
S'show'
p2237
aI1
aa(lp2238
S'shower'
p2239
aI1
aa(lp2240
S'showing'
p2241
aI1
aa(lp2242
S'shown'
p2243
aI3
aa(lp2244
S'shows'
p2245
aI2
aa(lp2246
S'sign'
p2247
aI1
aa(lp2248
S'significance'
p2249
aI1
aa(lp2250
S'significant'
p2251
aI1
aa(lp2252
S'significantly'
p2253
aI1
aa(lp2254
S'similar'
p2255
aI8
aa(lp2256
S'similarities'
p2257
aI1
aa(lp2258
S'similarly'
p2259
aI1
aa(lp2260
S'simple'
p2261
aI8
aa(lp2262
S'simplest'
p2263
aI1
aa(lp2264
S'simplifies'
p2265
aI1
aa(lp2266
S'simplify'
p2267
aI1
aa(lp2268
S'simply'
p2269
aI3
aa(lp2270
S'since'
p2271
aI16
aa(lp2272
S'single'
p2273
aI7
aa(lp2274
S'skirkanich'
p2275
aI1
aa(lp2276
S'slightly'
p2277
aI2
aa(lp2278
S'slow'
p2279
aI2
aa(lp2280
S'small'
p2281
aI3
aa(lp2282
S'smb'
p2283
aI1
aa(lp2284
S'smooth'
p2285
aI1
aa(lp2286
S'so'
p2287
aI1
aa(lp2288
S'sole'
p2289
aI3
aa(lp2290
S'solely'
p2291
aI2
aa(lp2292
S'solution'
p2293
aI1
aa(lp2294
S'solutions'
p2295
aI1
aa(lp2296
S'some'
p2297
aI5
aa(lp2298
S'something'
p2299
aI1
aa(lp2300
S'somewhat'
p2301
aI4
aa(lp2302
S'somewhere'
p2303
aI1
aa(lp2304
S'sonntag'
p2305
aI1
aa(lp2306
S'sought'
p2307
aI1
aa(lp2308
S'source'
p2309
aI3
aa(lp2310
S'sourced'
p2311
aI1
aa(lp2312
S'sources'
p2313
aI3
aa(lp2314
S'space'
p2315
aI4
aa(lp2316
S'spaces'
p2317
aI1
aa(lp2318
S'spatially'
p2319
aI1
aa(lp2320
S'specific'
p2321
aI5
aa(lp2322
S'specifically'
p2323
aI3
aa(lp2324
S'specify'
p2325
aI1
aa(lp2326
S'stability'
p2327
aI2
aa(lp2328
S'standard'
p2329
aI1
aa(lp2330
S'start'
p2331
aI2
aa(lp2332
S'starting'
p2333
aI1
aa(lp2334
S'starts'
p2335
aI1
aa(lp2336
S'state'
p2337
aI22
aa(lp2338
S'stated'
p2339
aI3
aa(lp2340
S'statement'
p2341
aI30
aa(lp2342
S'statements'
p2343
aI9
aa(lp2344
S'states'
p2345
aI27
aa(lp2346
S'static'
p2347
aI8
aa(lp2348
S'stating'
p2349
aI2
aa(lp2350
S'statistical'
p2351
aI1
aa(lp2352
S'steam'
p2353
aI3
aa(lp2354
S'stems'
p2355
aI1
aa(lp2356
S'steps'
p2357
aI4
aa(lp2358
S'still'
p2359
aI1
aa(lp2360
S'stored'
p2361
aI1
aa(lp2362
S'stressed'
p2363
aI1
aa(lp2364
S'strictly'
p2365
aI1
aa(lp2366
S'striking'
p2367
aI1
aa(lp2368
S'stripped'
p2369
aI1
aa(lp2370
S'strong'
p2371
aI3
aa(lp2372
S'structure'
p2373
aI1
aa(lp2374
S'student'
p2375
aI6
aa(lp2376
S'students'
p2377
aI3
aa(lp2378
S'studied'
p2379
aI2
aa(lp2380
S'studies'
p2381
aI1
aa(lp2382
S'study'
p2383
aI2
aa(lp2384
S'subject'
p2385
aI1
aa(lp2386
S'subjective'
p2387
aI1
aa(lp2388
S'substance'
p2389
aI3
aa(lp2390
S'substituting'
p2391
aI1
aa(lp2392
S'substitutions'
p2393
aI1
aa(lp2394
S'subsystem'
p2395
aI1
aa(lp2396
S'subsystems'
p2397
aI7
aa(lp2398
S'subtle'
p2399
aI1
aa(lp2400
S'subtracting'
p2401
aI2
aa(lp2402
S'subtraction'
p2403
aI1
aa(lp2404
S'succeed'
p2405
aI1
aa(lp2406
S'succeeds'
p2407
aI1
aa(lp2408
S'successful'
p2409
aI1
aa(lp2410
S'succession'
p2411
aI1
aa(lp2412
S'such'
p2413
aI28
aa(lp2414
S'sufficient'
p2415
aI3
aa(lp2416
S'suggested'
p2417
aI3
aa(lp2418
S'suggests'
p2419
aI1
aa(lp2420
S'suitable'
p2421
aI1
aa(lp2422
S'suited'
p2423
aI1
aa(lp2424
S'sum'
p2425
aI3
aa(lp2426
S'summarized'
p2427
aI1
aa(lp2428
S'surface'
p2429
aI6
aa(lp2430
S'surroundings'
p2431
aI3
aa(lp2432
S'symbol'
p2433
aI1
aa(lp2434
S'symbols'
p2435
aI3
aa(lp2436
S'symmetry'
p2437
aI1
aa(lp2438
S'synonym'
p2439
aI1
aa(lp2440
S'system'
p2441
aI53
aa(lp2442
S'systems'
p2443
aI14
aa(lp2444
S't'
p2445
aI9
aa(lp2446
S'take'
p2447
aI2
aa(lp2448
S'taken'
p2449
aI5
aa(lp2450
S'taking'
p2451
aI4
aa(lp2452
S'tb'
p2453
aI1
aa(lp2454
S'tc'
p2455
aI1
aa(lp2456
S'teaching'
p2457
aI1
aa(lp2458
S'tell'
p2459
aI1
aa(lp2460
S'tells'
p2461
aI2
aa(lp2462
S'temperature'
p2463
aI24
aa(lp2464
S'temperatures'
p2465
aI1
aa(lp2466
S'tend'
p2467
aI1
aa(lp2468
S'term'
p2469
aI1
aa(lp2470
S'terminal'
p2471
aI1
aa(lp2472
S'terminating'
p2473
aI1
aa(lp2474
S'terminology'
p2475
aI1
aa(lp2476
S'terms'
p2477
aI3
aa(lp2478
S'text'
p2479
aI10
aa(lp2480
S'textbook'
p2481
aI10
aa(lp2482
S'textbooks'
p2483
aI16
aa(lp2484
S'texts'
p2485
aI2
aa(lp2486
S'th'
p2487
aI1
aa(lp2488
S'than'
p2489
aI4
aa(lp2490
S'that'
p2491
aI155
aa(lp2492
S'the'
p2493
aI568
aa(lp2494
S'their'
p2495
aI17
aa(lp2496
S'them'
p2497
aI4
aa(lp2498
S'themselves'
p2499
aI1
aa(lp2500
S'then'
p2501
aI10
aa(lp2502
S'theorem'
p2503
aI1
aa(lp2504
S'theory'
p2505
aI28
aa(lp2506
S'there'
p2507
aI13
aa(lp2508
S'thereby'
p2509
aI3
aa(lp2510
S'therefore'
p2511
aI7
aa(lp2512
S'thermal'
p2513
aI10
aa(lp2514
S'therme'
p2515
aI1
aa(lp2516
S'thermodynamic'
p2517
aI26
aa(lp2518
S'thermodynamical'
p2519
aI1
aa(lp2520
S'thermodynamics'
p2521
aI112
aa(lp2522
S'thermometer'
p2523
aI1
aa(lp2524
S'these'
p2525
aI29
aa(lp2526
S'they'
p2527
aI15
aa(lp2528
S'third'
p2529
aI9
aa(lp2530
S'this'
p2531
aI67
aa(lp2532
S'thomas'
p2533
aI2
aa(lp2534
S'those'
p2535
aI1
aa(lp2536
S'thought'
p2537
aI1
aa(lp2538
S'three'
p2539
aI4
aa(lp2540
S'throughout'
p2541
aI2
aa(lp2542
S'thus'
p2543
aI6
aa(lp2544
S'tied'
p2545
aI1
aa(lp2546
S'time'
p2547
aI4
aa(lp2548
S'tisza'
p2549
aI8
aa(lp2550
S'to'
p2551
aI215
aa(lp2552
S'today'
p2553
aI1
aa(lp2554
S'too'
p2555
aI2
aa(lp2556
S'took'
p2557
aI2
aa(lp2558
S'topic'
p2559
aI1
aa(lp2560
S'topics'
p2561
aI1
aa(lp2562
S'towards'
p2563
aI1
aa(lp2564
S'traced'
p2565
aI1
aa(lp2566
S'traditional'
p2567
aI3
aa(lp2568
S'traditionally'
p2569
aI1
aa(lp2570
S'transfer'
p2571
aI11
aa(lp2572
S'transferred'
p2573
aI2
aa(lp2574
S'transfers'
p2575
aI2
aa(lp2576
S'transformation'
p2577
aI1
aa(lp2578
S'transformations'
p2579
aI1
aa(lp2580
S'translated'
p2581
aI1
aa(lp2582
S'transmits'
p2583
aI1
aa(lp2584
S'travel'
p2585
aI1
aa(lp2586
S'treated'
p2587
aI1
aa(lp2588
S'treatment'
p2589
aI2
aa(lp2590
S'tried'
p2591
aI1
aa(lp2592
S'trillions'
p2593
aI1
aa(lp2594
S'trivial'
p2595
aI1
aa(lp2596
S'true'
p2597
aI1
aa(lp2598
S'truly'
p2599
aI1
aa(lp2600
S'turn'
p2601
aI1
aa(lp2602
S'turner'
p2603
aI1
aa(lp2604
S'turning'
p2605
aI1
aa(lp2606
S'tvs'
p2607
aI1
aa(lp2608
S'two'
p2609
aI29
aa(lp2610
S'type'
p2611
aI1
aa(lp2612
S'u'
p2613
aI5
aa(lp2614
S'ulises'
p2615
aI1
aa(lp2616
S'ultimately'
p2617
aI2
aa(lp2618
S'unavailability'
p2619
aI1
aa(lp2620
S'unaware'
p2621
aI1
aa(lp2622
S'uncomfortable'
p2623
aI1
aa(lp2624
S'undergo'
p2625
aI1
aa(lp2626
S'undergoes'
p2627
aI2
aa(lp2628
S'undergoing'
p2629
aI1
aa(lp2630
S'understand'
p2631
aI3
aa(lp2632
S'understandable'
p2633
aI6
aa(lp2634
S'understanding'
p2635
aI7
aa(lp2636
S'understandings'
p2637
aI1
aa(lp2638
S'understood'
p2639
aI1
aa(lp2640
S'unfeasible'
p2641
aI1
aa(lp2642
S'uniform'
p2643
aI1
aa(lp2644
S'unique'
p2645
aI1
aa(lp2646
S'uniquely'
p2647
aI3
aa(lp2648
S'university'
p2649
aI1
aa(lp2650
S'unlike'
p2651
aI2
aa(lp2652
S'unnecessarily'
p2653
aI2
aa(lp2654
S'unnecessary'
p2655
aI1
aa(lp2656
S'until'
p2657
aI3
aa(lp2658
S'up'
p2659
aI1
aa(lp2660
S'uphill'
p2661
aI1
aa(lp2662
S'upon'
p2663
aI7
aa(lp2664
S'us'
p2665
aI6
aa(lp2666
S'use'
p2667
aI5
aa(lp2668
S'used'
p2669
aI25
aa(lp2670
S'useful'
p2671
aI4
aa(lp2672
S'using'
p2673
aI5
aa(lp2674
S'usual'
p2675
aI1
aa(lp2676
S'utensils'
p2677
aI1
aa(lp2678
S'v'
p2679
aI3
aa(lp2680
S'vague'
p2681
aI1
aa(lp2682
S'valid'
p2683
aI2
aa(lp2684
S'validated'
p2685
aI1
aa(lp2686
S'validation'
p2687
aI1
aa(lp2688
S'value'
p2689
aI1
aa(lp2690
S'valued'
p2691
aI1
aa(lp2692
S'values'
p2693
aI3
aa(lp2694
S'vanishes'
p2695
aI1
aa(lp2696
S'vanishingly'
p2697
aI1
aa(lp2698
S'variables'
p2699
aI2
aa(lp2700
S'variation'
p2701
aI1
aa(lp2702
S'variations'
p2703
aI2
aa(lp2704
S'various'
p2705
aI2
aa(lp2706
S'varying'
p2707
aI1
aa(lp2708
S'verified'
p2709
aI1
aa(lp2710
S'version'
p2711
aI4
aa(lp2712
S'versions'
p2713
aI3
aa(lp2714
S'very'
p2715
aI9
aa(lp2716
S'view'
p2717
aI1
aa(lp2718
S'viewed'
p2719
aI1
aa(lp2720
S'violate'
p2721
aI2
aa(lp2722
S'violates'
p2723
aI1
aa(lp2724
S'violating'
p2725
aI1
aa(lp2726
S'violation'
p2727
aI5
aa(lp2728
S'visualize'
p2729
aI2
aa(lp2730
S'volume'
p2731
aI5
aa(lp2732
S'wall'
p2733
aI1
aa(lp2734
S'walls'
p2735
aI1
aa(lp2736
S'walther'
p2737
aI1
aa(lp2738
S'wang'
p2739
aI1
aa(lp2740
S'warmer'
p2741
aI2
aa(lp2742
S'was'
p2743
aI21
aa(lp2744
S'wasn'
p2745
aI1
aa(lp2746
S'water'
p2747
aI1
aa(lp2748
S'way'
p2749
aI7
aa(lp2750
S'ways'
p2751
aI1
aa(lp2752
S'we'
p2753
aI17
aa(lp2754
S'well'
p2755
aI3
aa(lp2756
S'were'
p2757
aI27
aa(lp2758
S'what'
p2759
aI2
aa(lp2760
S'when'
p2761
aI9
aa(lp2762
S'where'
p2763
aI11
aa(lp2764
S'whereas'
p2765
aI1
aa(lp2766
S'wherever'
p2767
aI1
aa(lp2768
S'whether'
p2769
aI1
aa(lp2770
S'which'
p2771
aI28
aa(lp2772
S'while'
p2773
aI4
aa(lp2774
S'who'
p2775
aI6
aa(lp2776
S'wide'
p2777
aI1
aa(lp2778
S'widely'
p2779
aI2
aa(lp2780
S'will'
p2781
aI20
aa(lp2782
S'william'
p2783
aI2
aa(lp2784
S'windows'
p2785
aI1
aa(lp2786
S'wishes'
p2787
aI1
aa(lp2788
S'with'
p2789
aI58
aa(lp2790
S'without'
p2791
aI7
aa(lp2792
S'word'
p2793
aI3
aa(lp2794
S'wording'
p2795
aI1
aa(lp2796
S'wordings'
p2797
aI1
aa(lp2798
S'words'
p2799
aI3
aa(lp2800
S'work'
p2801
aI17
aa(lp2802
S'works'
p2803
aI1
aa(lp2804
S'would'
p2805
aI16
aa(lp2806
S'writing'
p2807
aI1
aa(lp2808
S'written'
p2809
aI4
aa(lp2810
S'wrote'
p2811
aI2
aa(lp2812
S'x'
p2813
aI1
aa(lp2814
S'xia'
p2815
aI1
aa(lp2816
S'xj'
p2817
aI1
aa(lp2818
S'years'
p2819
aI2
aa(lp2820
S'yet'
p2821
aI1
aa(lp2822
S'z'
p2823
aI2
aa(lp2824
S'zero'
p2825
aI14
aa(lp2826
S'zeroth'
p2827
aI7
aatp2828
Rp2829
.(lp0
I15
aI18
aI19
aI7
aI8
aI3
aI5
aI4
aI8
aI5
aI5
aI4
aI4
aI4
aI2
aI5
aI6
aI4
aI12
a.I30
.S'thermodynamic'
p0
.S'thermodynamics'
p0
.